target datalayout = "e-m:e-p270:32:32-p271:32:32-p272:64:64-i64:64-i128:128-f80:128-n8:16:32:64-S128"
target triple = "x86_64-pc-linux-gnu"

%struct.AVPixFmtDescriptor = type { ptr, i8, i8, i8, i64, [4 x %struct.AVComponentDescriptor], ptr }
%struct.AVComponentDescriptor = type { i32, i32, i32, i32, i32 }

@.str.1 = private unnamed_addr constant [30 x i8] c"Assertion %s failed at %s:%d\0A\00", align 1
@.str.12 = private unnamed_addr constant [5 x i8] c"desc\00", align 1
@.str.13 = private unnamed_addr constant [30 x i8] c"libswscale/swscale_internal.h\00", align 1

; Function Attrs: alwaysinline nounwind uwtable
define internal i32 @usePal(i32 noundef %0) #3 {
  %2 = alloca i32, align 4
  %3 = alloca i32, align 4
  store i32 %0, ptr %3, align 4, !tbaa !14
  %4 = load i32, ptr %3, align 4, !tbaa !14
  switch i32 %4, label %6 [
    i32 11, label %5
    i32 19, label %5
    i32 17, label %5
    i32 8, label %5
    i32 22, label %5
    i32 20, label %5
  ]

5:                                                ; preds = %1, %1, %1, %1, %1, %1
  store i32 1, ptr %2, align 4
  br label %7

6:                                                ; preds = %1
  store i32 0, ptr %2, align 4
  br label %7

7:                                                ; preds = %6, %5
  %8 = load i32, ptr %2, align 4
  ret i32 %8
}

; Function Attrs: alwaysinline nounwind uwtable
define internal i32 @isPlanar(i32 noundef %0) #3 {
  %2 = alloca i32, align 4
  %3 = alloca ptr, align 8
  store i32 %0, ptr %2, align 4, !tbaa !14
  call void @llvm.lifetime.start.p0(i64 8, ptr %3) #11
  %4 = load i32, ptr %2, align 4, !tbaa !14
  %5 = call ptr @av_pix_fmt_desc_get(i32 noundef %4)
  store ptr %5, ptr %3, align 8, !tbaa !83
  br label %6

6:                                                ; preds = %1
  %7 = load ptr, ptr %3, align 8, !tbaa !83
  %8 = icmp ne ptr %7, null
  br i1 %8, label %10, label %9

9:                                                ; preds = %6
  call void (ptr, i32, ptr, ...) @av_log(ptr noundef null, i32 noundef 0, ptr noundef @.str.1, ptr noundef @.str.12, ptr noundef @.str.13, i32 noundef 899)
  call void @abort() #12
  unreachable

10:                                               ; preds = %6
  br label %11

11:                                               ; preds = %10
  br label %12

12:                                               ; preds = %11
  %13 = load ptr, ptr %3, align 8, !tbaa !83
  %14 = getelementptr inbounds nuw %struct.AVPixFmtDescriptor, ptr %13, i32 0, i32 1
  %15 = load i8, ptr %14, align 8, !tbaa !89
  %16 = zext i8 %15 to i32
  %17 = icmp sge i32 %16, 2
  br i1 %17, label %18, label %24

18:                                               ; preds = %12
  %19 = load ptr, ptr %3, align 8, !tbaa !83
  %20 = getelementptr inbounds nuw %struct.AVPixFmtDescriptor, ptr %19, i32 0, i32 4
  %21 = load i64, ptr %20, align 8, !tbaa !87
  %22 = and i64 %21, 16
  %23 = icmp ne i64 %22, 0
  br label %24

24:                                               ; preds = %18, %12
  %25 = phi i1 [ false, %12 ], [ %23, %18 ]
  %26 = zext i1 %25 to i32
  call void @llvm.lifetime.end.p0(i64 8, ptr %3) #11
  ret i32 %26
}

; Function Attrs: alwaysinline nounwind uwtable
define internal i32 @isALPHA(i32 noundef %0) #3 {
  %2 = alloca i32, align 4
  %3 = alloca i32, align 4
  %4 = alloca ptr, align 8
  %5 = alloca i32, align 4
  store i32 %0, ptr %3, align 4, !tbaa !14
  call void @llvm.lifetime.start.p0(i64 8, ptr %4) #11
  %6 = load i32, ptr %3, align 4, !tbaa !14
  %7 = call ptr @av_pix_fmt_desc_get(i32 noundef %6)
  store ptr %7, ptr %4, align 8, !tbaa !83
  br label %8

8:                                                ; preds = %1
  %9 = load ptr, ptr %4, align 8, !tbaa !83
  %10 = icmp ne ptr %9, null
  br i1 %10, label %12, label %11

11:                                               ; preds = %8
  call void (ptr, i32, ptr, ...) @av_log(ptr noundef null, i32 noundef 0, ptr noundef @.str.1, ptr noundef @.str.12, ptr noundef @.str.13, i32 noundef 881)
  call void @abort() #12
  unreachable

12:                                               ; preds = %8
  br label %13

13:                                               ; preds = %12
  br label %14

14:                                               ; preds = %13
  %15 = load i32, ptr %3, align 4, !tbaa !14
  %16 = icmp eq i32 %15, 11
  br i1 %16, label %17, label %18

17:                                               ; preds = %14
  store i32 1, ptr %2, align 4
  store i32 1, ptr %5, align 4
  br label %24

18:                                               ; preds = %14
  %19 = load ptr, ptr %4, align 8, !tbaa !83
  %20 = getelementptr inbounds nuw %struct.AVPixFmtDescriptor, ptr %19, i32 0, i32 4
  %21 = load i64, ptr %20, align 8, !tbaa !87
  %22 = and i64 %21, 128
  %23 = trunc i64 %22 to i32
  store i32 %23, ptr %2, align 4
  store i32 1, ptr %5, align 4
  br label %24

24:                                               ; preds = %18, %17
  call void @llvm.lifetime.end.p0(i64 8, ptr %4) #11
  %25 = load i32, ptr %2, align 4
  ret i32 %25
}

; Function Attrs: nounwind uwtable
define internal void @reset_ptr(ptr noundef %0, i32 noundef %1) #0 {
  %3 = alloca ptr, align 8
  %4 = alloca i32, align 4
  store ptr %0, ptr %3, align 8, !tbaa !9
  store i32 %1, ptr %4, align 4, !tbaa !14
  %5 = load i32, ptr %4, align 4, !tbaa !14
  %6 = call i32 @isALPHA(i32 noundef %5)
  %7 = icmp ne i32 %6, 0
  br i1 %7, label %11, label %8

8:                                                ; preds = %2
  %9 = load ptr, ptr %3, align 8, !tbaa !9
  %10 = getelementptr inbounds ptr, ptr %9, i64 3
  store ptr null, ptr %10, align 8, !tbaa !60
  br label %11

11:                                               ; preds = %8, %2
  %12 = load i32, ptr %4, align 4, !tbaa !14
  %13 = call i32 @isPlanar(i32 noundef %12)
  %14 = icmp ne i32 %13, 0
  br i1 %14, label %27, label %15

15:                                               ; preds = %11
  %16 = load ptr, ptr %3, align 8, !tbaa !9
  %17 = getelementptr inbounds ptr, ptr %16, i64 2
  store ptr null, ptr %17, align 8, !tbaa !60
  %18 = load ptr, ptr %3, align 8, !tbaa !9
  %19 = getelementptr inbounds ptr, ptr %18, i64 3
  store ptr null, ptr %19, align 8, !tbaa !60
  %20 = load i32, ptr %4, align 4, !tbaa !14
  %21 = call i32 @usePal(i32 noundef %20)
  %22 = icmp ne i32 %21, 0
  br i1 %22, label %26, label %23

23:                                               ; preds = %15
  %24 = load ptr, ptr %3, align 8, !tbaa !9
  %25 = getelementptr inbounds ptr, ptr %24, i64 1
  store ptr null, ptr %25, align 8, !tbaa !60
  br label %26

26:                                               ; preds = %23, %15
  br label %27

27:                                               ; preds = %26, %11
  ret void
}