; Function Attrs: nounwind uwtable
define internal fastcc void @reset_ptr(ptr noundef nonnull writeonly captures(none) %0, i32 noundef %1) unnamed_addr #0 {
  %3 = tail call ptr @av_pix_fmt_desc_get(i32 noundef %1) #11
  %.not.i8 = icmp eq ptr %3, null
  br i1 %.not.i8, label %4, label %5

4:                                                ; preds = %2
  tail call void (ptr, i32, ptr, ...) @av_log(ptr noundef null, i32 noundef 0, ptr noundef nonnull @.str.1, ptr noundef nonnull @.str.12, ptr noundef nonnull @.str.13, i32 noundef 881) #11
  tail call void @abort() #12
  unreachable

5:                                                ; preds = %2
  %6 = icmp eq i32 %1, 11
  br i1 %6, label %isALPHA.exit.thread, label %isALPHA.exit

isALPHA.exit:                                     ; preds = %5
  %7 = getelementptr inbounds nuw i8, ptr %3, i64 16
  %8 = load i64, ptr %7, align 8, !tbaa !57
  %9 = and i64 %8, 128
  %.not = icmp eq i64 %9, 0
  br i1 %.not, label %10, label %isALPHA.exit.thread

10:                                               ; preds = %isALPHA.exit
  %11 = getelementptr inbounds nuw i8, ptr %0, i64 24
  store ptr null, ptr %11, align 8, !tbaa !58
  br label %isALPHA.exit.thread

isALPHA.exit.thread:                              ; preds = %5, %10, %isALPHA.exit
  %12 = tail call ptr @av_pix_fmt_desc_get(i32 noundef %1) #11
  %.not.i = icmp eq ptr %12, null
  br i1 %.not.i, label %13, label %14

13:                                               ; preds = %isALPHA.exit.thread
  tail call void (ptr, i32, ptr, ...) @av_log(ptr noundef null, i32 noundef 0, ptr noundef nonnull @.str.1, ptr noundef nonnull @.str.12, ptr noundef nonnull @.str.13, i32 noundef 899) #11
  tail call void @abort() #12
  unreachable

14:                                               ; preds = %isALPHA.exit.thread
  %15 = getelementptr inbounds nuw i8, ptr %12, i64 8
  %16 = load i8, ptr %15, align 8, !tbaa !55
  %17 = icmp ugt i8 %16, 1
  br i1 %17, label %isPlanar.exit, label %isPlanar.exit.thread

isPlanar.exit:                                    ; preds = %14
  %18 = getelementptr inbounds nuw i8, ptr %12, i64 16
  %19 = load i64, ptr %18, align 8, !tbaa !57
  %20 = and i64 %19, 16
  %.not6 = icmp eq i64 %20, 0
  br i1 %.not6, label %isPlanar.exit.thread, label %usePal.exit

isPlanar.exit.thread:                             ; preds = %14, %isPlanar.exit
  %21 = getelementptr inbounds nuw i8, ptr %0, i64 16
  tail call void @llvm.memset.p0.i64(ptr noundef nonnull align 8 dereferenceable(16) %21, i8 0, i64 16, i1 false)
  switch i32 %1, label %22 [
    i32 11, label %usePal.exit
    i32 19, label %usePal.exit
    i32 17, label %usePal.exit
    i32 8, label %usePal.exit
    i32 22, label %usePal.exit
    i32 20, label %usePal.exit
  ]

22:                                               ; preds = %isPlanar.exit.thread
  %23 = getelementptr inbounds nuw i8, ptr %0, i64 8
  store ptr null, ptr %23, align 8, !tbaa !58
  br label %usePal.exit

usePal.exit:                                      ; preds = %isPlanar.exit.thread, %isPlanar.exit.thread, %isPlanar.exit.thread, %isPlanar.exit.thread, %isPlanar.exit.thread, %isPlanar.exit.thread, %22, %isPlanar.exit
  ret void
}